target datalayout = "e-m:e-p270:32:32-p271:32:32-p272:64:64-i64:64-i128:128-f80:128-n8:16:32:64-S128"
target triple = "x86_64-pc-linux-gnu"

%"class.Assimp::OptimizeMeshesProcess" = type { %"class.Assimp::BaseProcess", ptr, %"class.std::vector", %"class.std::vector.0", i8, i32, i32, %"class.std::vector.0" }
%"class.Assimp::BaseProcess" = type { ptr, ptr, ptr }
%"class.std::vector" = type { %"struct.std::_Vector_base" }
%"struct.std::_Vector_base" = type { %"struct.std::_Vector_base<Assimp::OptimizeMeshesProcess::MeshInfo, std::allocator<Assimp::OptimizeMeshesProcess::MeshInfo>>::_Vector_impl" }
%"struct.std::_Vector_base<Assimp::OptimizeMeshesProcess::MeshInfo, std::allocator<Assimp::OptimizeMeshesProcess::MeshInfo>>::_Vector_impl" = type { %"struct.std::_Vector_base<Assimp::OptimizeMeshesProcess::MeshInfo, std::allocator<Assimp::OptimizeMeshesProcess::MeshInfo>>::_Vector_impl_data" }
%"struct.std::_Vector_base<Assimp::OptimizeMeshesProcess::MeshInfo, std::allocator<Assimp::OptimizeMeshesProcess::MeshInfo>>::_Vector_impl_data" = type { ptr, ptr, ptr }
%"class.std::vector.0" = type { %"struct.std::_Vector_base.1" }
%"struct.std::_Vector_base.1" = type { %"struct.std::_Vector_base<aiMesh *, std::allocator<aiMesh *>>::_Vector_impl" }
%"struct.std::_Vector_base<aiMesh *, std::allocator<aiMesh *>>::_Vector_impl" = type { %"struct.std::_Vector_base<aiMesh *, std::allocator<aiMesh *>>::_Vector_impl_data" }
%"struct.std::_Vector_base<aiMesh *, std::allocator<aiMesh *>>::_Vector_impl_data" = type { ptr, ptr, ptr }
%struct.aiScene = type { i32, ptr, i32, ptr, i32, ptr, i32, ptr, i32, ptr, i32, ptr, i32, ptr, ptr, %struct.aiString, i32, ptr, ptr }
%struct.aiString = type { i32, [1024 x i8] }
%"struct.Assimp::OptimizeMeshesProcess::MeshInfo" = type { i32, i32, i32 }
%struct.aiMesh = type { i32, i32, i32, ptr, ptr, ptr, ptr, [8 x ptr], [8 x ptr], [8 x i32], ptr, i32, ptr, i32, %struct.aiString, i32, ptr, i32, %struct.aiAABB, ptr }
%struct.aiAABB = type { %class.aiVector3t, %class.aiVector3t }
%class.aiVector3t = type { float, float, float }

; Function Attrs: mustprogress nounwind uwtable
define linkonce_odr hidden noundef zeroext i1 @_ZNK6aiMesh8HasBonesEv(ptr noundef nonnull align 8 dereferenceable(1320) %0) #0 comdat align 2 {
  %2 = alloca ptr, align 8
  store ptr %0, ptr %2, align 8
  %3 = load ptr, ptr %2, align 8
  %4 = getelementptr inbounds nuw %struct.aiMesh, ptr %3, i32 0, i32 12
  %5 = load ptr, ptr %4, align 8
  %6 = icmp ne ptr %5, null
  br i1 %6, label %7, label %11

7:                                                ; preds = %1
  %8 = getelementptr inbounds nuw %struct.aiMesh, ptr %3, i32 0, i32 11
  %9 = load i32, ptr %8, align 8
  %10 = icmp ugt i32 %9, 0
  br label %11

11:                                               ; preds = %7, %1
  %12 = phi i1 [ false, %1 ], [ %10, %7 ]
  ret i1 %12
}

; Function Attrs: mustprogress nounwind uwtable
define linkonce_odr hidden noundef nonnull align 4 dereferenceable(12) ptr @_ZNSt6vectorIN6Assimp21OptimizeMeshesProcess8MeshInfoESaIS2_EEixEm(ptr noundef nonnull align 8 dereferenceable(24) %0, i64 noundef %1) #0 comdat align 2 {
  %3 = alloca ptr, align 8
  %4 = alloca i64, align 8
  store ptr %0, ptr %3, align 8
  store i64 %1, ptr %4, align 8
  %5 = load ptr, ptr %3, align 8
  %6 = getelementptr inbounds nuw %"struct.std::_Vector_base", ptr %5, i32 0, i32 0
  %7 = getelementptr inbounds nuw %"struct.std::_Vector_base<Assimp::OptimizeMeshesProcess::MeshInfo, std::allocator<Assimp::OptimizeMeshesProcess::MeshInfo>>::_Vector_impl_data", ptr %6, i32 0, i32 0
  %8 = load ptr, ptr %7, align 8
  %9 = load i64, ptr %4, align 8
  %10 = getelementptr inbounds nuw %"struct.Assimp::OptimizeMeshesProcess::MeshInfo", ptr %8, i64 %9
  ret ptr %10
}

; Function Attrs: mustprogress uwtable
define hidden noundef zeroext i1 @_ZN6Assimp21OptimizeMeshesProcess7CanJoinEjjjj(ptr noundef nonnull align 8 dereferenceable(120) %0, i32 noundef %1, i32 noundef %2, i32 noundef %3, i32 noundef %4) #2 align 2 {
  %6 = alloca i1, align 1
  %7 = alloca ptr, align 8
  %8 = alloca i32, align 4
  %9 = alloca i32, align 4
  %10 = alloca i32, align 4
  %11 = alloca i32, align 4
  %12 = alloca ptr, align 8
  %13 = alloca ptr, align 8
  %14 = alloca i32, align 4
  store ptr %0, ptr %7, align 8
  store i32 %1, ptr %8, align 4
  store i32 %2, ptr %9, align 4
  store i32 %3, ptr %10, align 4
  store i32 %4, ptr %11, align 4
  %15 = load ptr, ptr %7, align 8
  %16 = getelementptr inbounds nuw %"class.Assimp::OptimizeMeshesProcess", ptr %15, i32 0, i32 2
  %17 = load i32, ptr %8, align 4
  %18 = zext i32 %17 to i64
  %19 = call noundef nonnull align 4 dereferenceable(12) ptr @_ZNSt6vectorIN6Assimp21OptimizeMeshesProcess8MeshInfoESaIS2_EEixEm(ptr noundef nonnull align 8 dereferenceable(24) %16, i64 noundef %18) #14
  %20 = getelementptr inbounds nuw %"struct.Assimp::OptimizeMeshesProcess::MeshInfo", ptr %19, i32 0, i32 1
  %21 = load i32, ptr %20, align 4
  %22 = getelementptr inbounds nuw %"class.Assimp::OptimizeMeshesProcess", ptr %15, i32 0, i32 2
  %23 = load i32, ptr %9, align 4
  %24 = zext i32 %23 to i64
  %25 = call noundef nonnull align 4 dereferenceable(12) ptr @_ZNSt6vectorIN6Assimp21OptimizeMeshesProcess8MeshInfoESaIS2_EEixEm(ptr noundef nonnull align 8 dereferenceable(24) %22, i64 noundef %24) #14
  %26 = getelementptr inbounds nuw %"struct.Assimp::OptimizeMeshesProcess::MeshInfo", ptr %25, i32 0, i32 1
  %27 = load i32, ptr %26, align 4
  %28 = icmp ne i32 %21, %27
  br i1 %28, label %29, label %30

29:                                               ; preds = %5
  store i1 false, ptr %6, align 1
  br label %109

30:                                               ; preds = %5
  call void @llvm.lifetime.start.p0(i64 8, ptr %12) #14
  %31 = getelementptr inbounds nuw %"class.Assimp::OptimizeMeshesProcess", ptr %15, i32 0, i32 1
  %32 = load ptr, ptr %31, align 8
  %33 = getelementptr inbounds nuw %struct.aiScene, ptr %32, i32 0, i32 3
  %34 = load ptr, ptr %33, align 8
  %35 = load i32, ptr %8, align 4
  %36 = zext i32 %35 to i64
  %37 = getelementptr inbounds nuw ptr, ptr %34, i64 %36
  %38 = load ptr, ptr %37, align 8
  store ptr %38, ptr %12, align 8
  call void @llvm.lifetime.start.p0(i64 8, ptr %13) #14
  %39 = getelementptr inbounds nuw %"class.Assimp::OptimizeMeshesProcess", ptr %15, i32 0, i32 1
  %40 = load ptr, ptr %39, align 8
  %41 = getelementptr inbounds nuw %struct.aiScene, ptr %40, i32 0, i32 3
  %42 = load ptr, ptr %41, align 8
  %43 = load i32, ptr %9, align 4
  %44 = zext i32 %43 to i64
  %45 = getelementptr inbounds nuw ptr, ptr %42, i64 %44
  %46 = load ptr, ptr %45, align 8
  store ptr %46, ptr %13, align 8
  %47 = getelementptr inbounds nuw %"class.Assimp::OptimizeMeshesProcess", ptr %15, i32 0, i32 5
  %48 = load i32, ptr %47, align 4
  %49 = icmp ne i32 -1, %48
  br i1 %49, label %50, label %59

50:                                               ; preds = %30
  %51 = load i32, ptr %10, align 4
  %52 = load ptr, ptr %13, align 8
  %53 = getelementptr inbounds nuw %struct.aiMesh, ptr %52, i32 0, i32 1
  %54 = load i32, ptr %53, align 4
  %55 = add i32 %51, %54
  %56 = getelementptr inbounds nuw %"class.Assimp::OptimizeMeshesProcess", ptr %15, i32 0, i32 5
  %57 = load i32, ptr %56, align 4
  %58 = icmp ugt i32 %55, %57
  br i1 %58, label %72, label %59

59:                                               ; preds = %50, %30
  %60 = getelementptr inbounds nuw %"class.Assimp::OptimizeMeshesProcess", ptr %15, i32 0, i32 6
  %61 = load i32, ptr %60, align 8
  %62 = icmp ne i32 -1, %61
  br i1 %62, label %63, label %73

63:                                               ; preds = %59
  %64 = load i32, ptr %11, align 4
  %65 = load ptr, ptr %13, align 8
  %66 = getelementptr inbounds nuw %struct.aiMesh, ptr %65, i32 0, i32 2
  %67 = load i32, ptr %66, align 8
  %68 = add i32 %64, %67
  %69 = getelementptr inbounds nuw %"class.Assimp::OptimizeMeshesProcess", ptr %15, i32 0, i32 6
  %70 = load i32, ptr %69, align 8
  %71 = icmp ugt i32 %68, %70
  br i1 %71, label %72, label %73

72:                                               ; preds = %63, %50
  store i1 false, ptr %6, align 1
  store i32 1, ptr %14, align 4
  br label %108

73:                                               ; preds = %63, %59
  %74 = load ptr, ptr %12, align 8
  %75 = getelementptr inbounds nuw %struct.aiMesh, ptr %74, i32 0, i32 13
  %76 = load i32, ptr %75, align 8
  %77 = load ptr, ptr %13, align 8
  %78 = getelementptr inbounds nuw %struct.aiMesh, ptr %77, i32 0, i32 13
  %79 = load i32, ptr %78, align 8
  %80 = icmp ne i32 %76, %79
  br i1 %80, label %89, label %81

81:                                               ; preds = %73
  %82 = load ptr, ptr %12, align 8
  %83 = call noundef zeroext i1 @_ZNK6aiMesh8HasBonesEv(ptr noundef nonnull align 8 dereferenceable(1320) %82)
  %84 = zext i1 %83 to i32
  %85 = load ptr, ptr %13, align 8
  %86 = call noundef zeroext i1 @_ZNK6aiMesh8HasBonesEv(ptr noundef nonnull align 8 dereferenceable(1320) %85)
  %87 = zext i1 %86 to i32
  %88 = icmp ne i32 %84, %87
  br i1 %88, label %89, label %90

89:                                               ; preds = %81, %73
  store i1 false, ptr %6, align 1
  store i32 1, ptr %14, align 4
  br label %108

90:                                               ; preds = %81
  %91 = getelementptr inbounds nuw %"class.Assimp::OptimizeMeshesProcess", ptr %15, i32 0, i32 4
  %92 = load i8, ptr %91, align 8, !range !10, !noundef !11
  %93 = trunc i8 %92 to i1
  br i1 %93, label %94, label %103

94:                                               ; preds = %90
  %95 = load ptr, ptr %12, align 8
  %96 = getelementptr inbounds nuw %struct.aiMesh, ptr %95, i32 0, i32 0
  %97 = load i32, ptr %96, align 8
  %98 = load ptr, ptr %13, align 8
  %99 = getelementptr inbounds nuw %struct.aiMesh, ptr %98, i32 0, i32 0
  %100 = load i32, ptr %99, align 8
  %101 = icmp ne i32 %97, %100
  br i1 %101, label %102, label %103

102:                                              ; preds = %94
  store i1 false, ptr %6, align 1
  store i32 1, ptr %14, align 4
  br label %108

103:                                              ; preds = %94, %90
  %104 = load ptr, ptr %12, align 8
  %105 = call noundef zeroext i1 @_ZNK6aiMesh8HasBonesEv(ptr noundef nonnull align 8 dereferenceable(1320) %104)
  br i1 %105, label %106, label %107

106:                                              ; preds = %103
  store i1 false, ptr %6, align 1
  store i32 1, ptr %14, align 4
  br label %108

107:                                              ; preds = %103
  store i1 true, ptr %6, align 1
  store i32 1, ptr %14, align 4
  br label %108

108:                                              ; preds = %107, %106, %102, %89, %72
  call void @llvm.lifetime.end.p0(i64 8, ptr %13) #14
  call void @llvm.lifetime.end.p0(i64 8, ptr %12) #14
  br label %109

109:                                              ; preds = %108, %29
  %110 = load i1, ptr %6, align 1
  ret i1 %110
}