; Function Attrs: mustprogress nofree norecurse nosync nounwind willreturn memory(read, inaccessiblemem: none) uwtable
define hidden noundef zeroext i1 @_ZN6Assimp21OptimizeMeshesProcess7CanJoinEjjjj(ptr noundef nonnull readonly align 8 captures(none) dereferenceable(120) %0, i32 noundef %1, i32 noundef %2, i32 noundef %3, i32 noundef %4) local_unnamed_addr #8 align 2 {
  %6 = getelementptr inbounds nuw i8, ptr %0, i64 32
  %7 = zext i32 %1 to i64
  %8 = load ptr, ptr %6, align 8
  %9 = getelementptr inbounds nuw %"struct.Assimp::OptimizeMeshesProcess::MeshInfo", ptr %8, i64 %7, i32 1
  %10 = load i32, ptr %9, align 4
  %11 = zext i32 %2 to i64
  %12 = getelementptr inbounds nuw %"struct.Assimp::OptimizeMeshesProcess::MeshInfo", ptr %8, i64 %11, i32 1
  %13 = load i32, ptr %12, align 4
  %.not = icmp eq i32 %10, %13
  br i1 %.not, label %14, label %65

14:                                               ; preds = %5
  %15 = getelementptr inbounds nuw i8, ptr %0, i64 24
  %16 = load ptr, ptr %15, align 8
  %17 = getelementptr inbounds nuw i8, ptr %16, i64 24
  %18 = load ptr, ptr %17, align 8
  %19 = getelementptr inbounds nuw ptr, ptr %18, i64 %7
  %20 = load ptr, ptr %19, align 8
  %21 = getelementptr inbounds nuw ptr, ptr %18, i64 %11
  %22 = load ptr, ptr %21, align 8
  %23 = getelementptr inbounds nuw i8, ptr %0, i64 84
  %24 = load i32, ptr %23, align 4
  %.not18 = icmp eq i32 %24, -1
  br i1 %.not18, label %30, label %25

25:                                               ; preds = %14
  %26 = getelementptr inbounds nuw i8, ptr %22, i64 4
  %27 = load i32, ptr %26, align 4
  %28 = add i32 %27, %3
  %29 = icmp ugt i32 %28, %24
  br i1 %29, label %65, label %30

30:                                               ; preds = %25, %14
  %31 = getelementptr inbounds nuw i8, ptr %0, i64 88
  %32 = load i32, ptr %31, align 8
  %.not19 = icmp eq i32 %32, -1
  br i1 %.not19, label %38, label %33

33:                                               ; preds = %30
  %34 = getelementptr inbounds nuw i8, ptr %22, i64 8
  %35 = load i32, ptr %34, align 8
  %36 = add i32 %35, %4
  %37 = icmp ugt i32 %36, %32
  br i1 %37, label %65, label %38

38:                                               ; preds = %33, %30
  %39 = getelementptr inbounds nuw i8, ptr %20, i64 232
  %40 = load i32, ptr %39, align 8
  %41 = getelementptr inbounds nuw i8, ptr %22, i64 232
  %42 = load i32, ptr %41, align 8
  %.not20 = icmp eq i32 %40, %42
  br i1 %.not20, label %43, label %65

43:                                               ; preds = %38
  %44 = getelementptr inbounds nuw i8, ptr %20, i64 224
  %45 = load ptr, ptr %44, align 8
  %.not.i = icmp ne ptr %45, null
  %46 = getelementptr inbounds nuw i8, ptr %20, i64 216
  %47 = load i32, ptr %46, align 8
  %48 = icmp ne i32 %47, 0
  %49 = select i1 %.not.i, i1 %48, i1 false
  %50 = getelementptr inbounds nuw i8, ptr %22, i64 224
  %51 = load ptr, ptr %50, align 8
  %.not.i23 = icmp ne ptr %51, null
  %52 = getelementptr inbounds nuw i8, ptr %22, i64 216
  %53 = load i32, ptr %52, align 8
  %54 = icmp ne i32 %53, 0
  %55 = select i1 %.not.i23, i1 %54, i1 false
  %56 = xor i1 %49, %55
  br i1 %56, label %65, label %57

57:                                               ; preds = %43
  %58 = getelementptr inbounds nuw i8, ptr %0, i64 80
  %59 = load i8, ptr %58, align 8, !range !7, !noundef !8
  %60 = trunc nuw i8 %59 to i1
  br i1 %60, label %61, label %64

61:                                               ; preds = %57
  %62 = load i32, ptr %20, align 8
  %63 = load i32, ptr %22, align 8
  %.not22 = icmp eq i32 %62, %63
  br i1 %.not22, label %64, label %65

64:                                               ; preds = %61, %57
  %not. = xor i1 %49, true
  br label %65

65:                                               ; preds = %33, %25, %43, %38, %61, %64, %5
  %.0 = phi i1 [ false, %5 ], [ false, %33 ], [ false, %25 ], [ false, %43 ], [ false, %38 ], [ false, %61 ], [ %not., %64 ]
  ret i1 %.0
}